target datalayout = "e-m:e-p270:32:32-p271:32:32-p272:64:64-i64:64-i128:128-f80:128-n8:16:32:64-S128"
target triple = "x86_64-unknown-linux-gnu"

%"class.sat::literal" = type { i32 }
%class.symbol = type { ptr }
%struct.pair_hash = type { %struct.unsigned_hash }
%struct.unsigned_hash = type { i8 }
%"class.bv::solver" = type { %"class.euf::th_euf_solver.base", %class.svector.3, i32, i32, %class.bv_util, %class.arith_util, %"struct.bv::solver::stats", %"class.bv::ackerman", %class.bit_blaster, %class.union_find, %class.vector.9, %class.svector.1, %class.vector.10, %class.ptr_vector.11, %class.map, %class.vector.15, %class.svector.3, %class.svector.16, %class.svector.1, i32, %"class.sat::literal", %class.ptr_vector, %class.obj_map, %class.obj_map.22, i8, [2 x %class.svector.27] }
%"class.euf::th_euf_solver.base" = type <{ %"class.euf::th_solver", ptr, %class.ptr_vector, %class.svector.1, i32 }>
%"class.euf::th_solver" = type { %"class.sat::extension", %"class.euf::th_model_builder", %"class.euf::th_decompile", %"class.euf::th_internalizer", ptr }
%"class.sat::extension" = type { ptr, i8, i32, %class.symbol, ptr }
%"class.euf::th_model_builder" = type { ptr }
%"class.euf::th_decompile" = type { ptr }
%"class.euf::th_internalizer" = type { ptr, %class.ptr_vector, %class.svector }
%class.svector = type { %class.vector.0 }
%class.vector.0 = type { ptr }
%class.bv_util = type { %class.bv_recognizers, ptr, ptr }
%class.bv_recognizers = type { i32 }
%class.arith_util = type { ptr, ptr }
%"struct.bv::solver::stats" = type { i32, i32, i32, i32, i32, i32, i32, i32 }
%"class.bv::ackerman" = type { ptr, %class.hashtable, ptr, ptr, i32, i32, i32, i32, %class.svector.5 }
%class.hashtable = type { %class.core_hashtable.base, [4 x i8] }
%class.core_hashtable.base = type <{ ptr, i32, i32, i32 }>
%class.svector.5 = type { %class.vector.6 }
%class.vector.6 = type { ptr }
%class.bit_blaster = type { %class.bit_blaster_tpl, %class.bv_util, %class.bool_rewriter }
%class.bit_blaster_tpl = type { %class.bit_blaster_cfg, i64 }
%class.bit_blaster_cfg = type { ptr, ptr, ptr }
%class.bool_rewriter = type { ptr, i8, i8, i8, i8, i8, i8, i32, i8, i32, i32, i8, %class.ptr_vector.7, %class.ptr_vector.7, %class.svector.1, %class.svector.1 }
%class.ptr_vector.7 = type { %class.vector.8 }
%class.vector.8 = type { ptr }
%class.union_find = type { ptr, ptr, %class.svector.1, %class.svector.1, %class.svector.1, %"class.union_find<bv::solver, euf::solver>::mk_var_trail" }
%"class.union_find<bv::solver, euf::solver>::mk_var_trail" = type { %class.trail, ptr }
%class.trail = type { ptr }
%class.vector.9 = type { ptr }
%class.vector.10 = type { ptr }
%class.ptr_vector.11 = type { %class.vector.12 }
%class.vector.12 = type { ptr }
%class.map = type { %class.table2map }
%class.table2map = type { %class.core_hashtable.13 }
%class.core_hashtable.13 = type <{ %"struct.table2map<default_map_entry<std::pair<rational, unsigned int>, int>, pair_hash<obj_hash<rational>, unsigned_hash>, default_eq<std::pair<rational, unsigned int>>>::entry_hash_proc", [7 x i8], ptr, i32, i32, i32, [4 x i8] }>
%"struct.table2map<default_map_entry<std::pair<rational, unsigned int>, int>, pair_hash<obj_hash<rational>, unsigned_hash>, default_eq<std::pair<rational, unsigned int>>>::entry_hash_proc" = type { %struct.pair_hash }
%class.vector.15 = type { ptr }
%class.svector.3 = type { %class.vector.4 }
%class.vector.4 = type { ptr }
%class.svector.16 = type { %class.vector.17 }
%class.vector.17 = type { ptr }
%class.svector.1 = type { %class.vector.2 }
%class.vector.2 = type { ptr }
%class.ptr_vector = type { %class.vector }
%class.vector = type { ptr }
%class.obj_map = type { %class.core_hashtable.18 }
%class.core_hashtable.18 = type <{ ptr, i32, i32, i32, [4 x i8] }>
%class.obj_map.22 = type { %class.core_hashtable.23 }
%class.core_hashtable.23 = type <{ ptr, i32, i32, i32, [4 x i8] }>
%class.svector.27 = type { %class.vector.28 }
%class.vector.28 = type { ptr }
%class.rational = type { %class.mpq }
%class.mpq = type { %class.mpz, %class.mpz }
%class.mpz = type { i32, i8, ptr }

; Function Attrs: mustprogress nounwind uwtable
define linkonce_odr hidden void @_ZSt4swapIP8mpz_cellENSt9enable_ifIXsr6__and_ISt6__not_ISt15__is_tuple_likeIT_EESt21is_move_constructibleIS5_ESt18is_move_assignableIS5_EEE5valueEvE4typeERS5_SE_(ptr noundef nonnull align 8 dereferenceable(8) %__a, ptr noundef nonnull align 8 dereferenceable(8) %__b) #4 comdat {
entry:
  %__a.addr = alloca ptr, align 8
  %__b.addr = alloca ptr, align 8
  %__tmp = alloca ptr, align 8
  store ptr %__a, ptr %__a.addr, align 8
  store ptr %__b, ptr %__b.addr, align 8
  %0 = load ptr, ptr %__a.addr, align 8
  %1 = load ptr, ptr %0, align 8
  store ptr %1, ptr %__tmp, align 8
  %2 = load ptr, ptr %__b.addr, align 8
  %3 = load ptr, ptr %2, align 8
  %4 = load ptr, ptr %__a.addr, align 8
  store ptr %3, ptr %4, align 8
  %5 = load ptr, ptr %__tmp, align 8
  %6 = load ptr, ptr %__b.addr, align 8
  store ptr %5, ptr %6, align 8
  ret void
}

; Function Attrs: mustprogress nounwind uwtable
define linkonce_odr hidden void @_ZN3mpzC2EOS_(ptr noundef nonnull align 8 dereferenceable(16) %this, ptr noundef nonnull align 8 dereferenceable(16) %other) unnamed_addr #4 comdat align 2 {
entry:
  %this.addr = alloca ptr, align 8
  %other.addr = alloca ptr, align 8
  store ptr %this, ptr %this.addr, align 8
  store ptr %other, ptr %other.addr, align 8
  %this1 = load ptr, ptr %this.addr, align 8
  %m_val = getelementptr inbounds %class.mpz, ptr %this1, i32 0, i32 0
  %0 = load ptr, ptr %other.addr, align 8
  %m_val2 = getelementptr inbounds %class.mpz, ptr %0, i32 0, i32 0
  %1 = load i32, ptr %m_val2, align 8
  store i32 %1, ptr %m_val, align 8
  %m_kind = getelementptr inbounds %class.mpz, ptr %this1, i32 0, i32 1
  %2 = load ptr, ptr %other.addr, align 8
  %m_kind3 = getelementptr inbounds %class.mpz, ptr %2, i32 0, i32 1
  %bf.load = load i8, ptr %m_kind3, align 4
  %bf.clear = and i8 %bf.load, 1
  %bf.cast = zext i8 %bf.clear to i32
  %3 = trunc i32 %bf.cast to i8
  %bf.load4 = load i8, ptr %m_kind, align 4
  %bf.value = and i8 %3, 1
  %bf.clear5 = and i8 %bf.load4, -2
  %bf.set = or i8 %bf.clear5, %bf.value
  store i8 %bf.set, ptr %m_kind, align 4
  %m_owner = getelementptr inbounds %class.mpz, ptr %this1, i32 0, i32 1
  %4 = load ptr, ptr %other.addr, align 8
  %m_owner6 = getelementptr inbounds %class.mpz, ptr %4, i32 0, i32 1
  %bf.load7 = load i8, ptr %m_owner6, align 4
  %bf.lshr = lshr i8 %bf.load7, 1
  %bf.clear8 = and i8 %bf.lshr, 1
  %bf.cast9 = zext i8 %bf.clear8 to i32
  %5 = trunc i32 %bf.cast9 to i8
  %bf.load10 = load i8, ptr %m_owner, align 4
  %bf.value11 = and i8 %5, 1
  %bf.shl = shl i8 %bf.value11, 1
  %bf.clear12 = and i8 %bf.load10, -3
  %bf.set13 = or i8 %bf.clear12, %bf.shl
  store i8 %bf.set13, ptr %m_owner, align 4
  %m_ptr = getelementptr inbounds %class.mpz, ptr %this1, i32 0, i32 2
  store ptr null, ptr %m_ptr, align 8
  %m_ptr14 = getelementptr inbounds %class.mpz, ptr %this1, i32 0, i32 2
  %6 = load ptr, ptr %other.addr, align 8
  %m_ptr15 = getelementptr inbounds %class.mpz, ptr %6, i32 0, i32 2
  call void @_ZSt4swapIP8mpz_cellENSt9enable_ifIXsr6__and_ISt6__not_ISt15__is_tuple_likeIT_EESt21is_move_constructibleIS5_ESt18is_move_assignableIS5_EEE5valueEvE4typeERS5_SE_(ptr noundef nonnull align 8 dereferenceable(8) %m_ptr14, ptr noundef nonnull align 8 dereferenceable(8) %m_ptr15) #3
  ret void
}

; Function Attrs: mustprogress nounwind uwtable
define linkonce_odr hidden void @_ZN3mpqC2EOS_(ptr noundef nonnull align 8 dereferenceable(32) %this, ptr noundef nonnull align 8 dereferenceable(32) %0) unnamed_addr #4 comdat align 2 {
entry:
  %this.addr = alloca ptr, align 8
  %.addr = alloca ptr, align 8
  store ptr %this, ptr %this.addr, align 8
  store ptr %0, ptr %.addr, align 8
  %this1 = load ptr, ptr %this.addr, align 8
  %m_num = getelementptr inbounds %class.mpq, ptr %this1, i32 0, i32 0
  %1 = load ptr, ptr %.addr, align 8
  %m_num2 = getelementptr inbounds %class.mpq, ptr %1, i32 0, i32 0
  call void @_ZN3mpzC2EOS_(ptr noundef nonnull align 8 dereferenceable(16) %m_num, ptr noundef nonnull align 8 dereferenceable(16) %m_num2) #3
  %m_den = getelementptr inbounds %class.mpq, ptr %this1, i32 0, i32 1
  %2 = load ptr, ptr %.addr, align 8
  %m_den3 = getelementptr inbounds %class.mpq, ptr %2, i32 0, i32 1
  call void @_ZN3mpzC2EOS_(ptr noundef nonnull align 8 dereferenceable(16) %m_den, ptr noundef nonnull align 8 dereferenceable(16) %m_den3) #3
  ret void
}

; Function Attrs: mustprogress nounwind uwtable
define linkonce_odr hidden void @_ZN8rationalC2EOS_(ptr noundef nonnull align 8 dereferenceable(32) %this, ptr noundef nonnull align 8 dereferenceable(32) %0) unnamed_addr #4 comdat align 2 {
entry:
  %this.addr = alloca ptr, align 8
  %.addr = alloca ptr, align 8
  store ptr %this, ptr %this.addr, align 8
  store ptr %0, ptr %.addr, align 8
  %this1 = load ptr, ptr %this.addr, align 8
  %m_val = getelementptr inbounds %class.rational, ptr %this1, i32 0, i32 0
  %1 = load ptr, ptr %.addr, align 8
  %m_val2 = getelementptr inbounds %class.rational, ptr %1, i32 0, i32 0
  call void @_ZN3mpqC2EOS_(ptr noundef nonnull align 8 dereferenceable(32) %m_val, ptr noundef nonnull align 8 dereferenceable(32) %m_val2) #3
  ret void
}

; Function Attrs: mustprogress uwtable
define linkonce_odr hidden void @_ZNK15bit_blaster_cfg5powerEj(ptr noalias sret(%class.rational) align 8 %agg.result, ptr noundef nonnull align 8 dereferenceable(24) %this, i32 noundef %n) #5 comdat align 2 {
entry:
  %result.ptr = alloca ptr, align 8
  %this.addr = alloca ptr, align 8
  %n.addr = alloca i32, align 4
  store ptr %agg.result, ptr %result.ptr, align 8
  store ptr %this, ptr %this.addr, align 8
  store i32 %n, ptr %n.addr, align 4
  %0 = load i32, ptr %n.addr, align 4
  call void @_ZN8rational12power_of_twoEj(ptr sret(%class.rational) align 8 %agg.result, i32 noundef %0)
  ret void
}

; Function Attrs: mustprogress nounwind uwtable
define linkonce_odr hidden noundef nonnull align 8 dereferenceable(32) ptr @_ZN6vectorI8rationalLb1EjEixEj(ptr noundef nonnull align 8 dereferenceable(8) %this, i32 noundef %idx) #4 comdat align 2 {
entry:
  %this.addr = alloca ptr, align 8
  %idx.addr = alloca i32, align 4
  store ptr %this, ptr %this.addr, align 8
  store i32 %idx, ptr %idx.addr, align 4
  %this1 = load ptr, ptr %this.addr, align 8
  %m_data = getelementptr inbounds %class.vector.15, ptr %this1, i32 0, i32 0
  %0 = load ptr, ptr %m_data, align 8
  %1 = load i32, ptr %idx.addr, align 4
  %idxprom = zext i32 %1 to i64
  %arrayidx = getelementptr inbounds %class.rational, ptr %0, i64 %idxprom
  ret ptr %arrayidx
}

; Function Attrs: mustprogress uwtable
define linkonce_odr hidden noundef nonnull align 8 dereferenceable(8) ptr @_ZN6vectorI8rationalLb1EjE9push_backEOS0_(ptr noundef nonnull align 8 dereferenceable(8) %this, ptr noundef nonnull align 8 dereferenceable(32) %elem) #5 comdat align 2 {
entry:
  %this.addr = alloca ptr, align 8
  %elem.addr = alloca ptr, align 8
  store ptr %this, ptr %this.addr, align 8
  store ptr %elem, ptr %elem.addr, align 8
  %this1 = load ptr, ptr %this.addr, align 8
  %m_data = getelementptr inbounds %class.vector.15, ptr %this1, i32 0, i32 0
  %0 = load ptr, ptr %m_data, align 8
  %cmp = icmp eq ptr %0, null
  br i1 %cmp, label %if.then, label %lor.lhs.false

lor.lhs.false:                                    ; preds = %entry
  %m_data2 = getelementptr inbounds %class.vector.15, ptr %this1, i32 0, i32 0
  %1 = load ptr, ptr %m_data2, align 8
  %arrayidx = getelementptr inbounds i32, ptr %1, i64 -1
  %2 = load i32, ptr %arrayidx, align 4
  %m_data3 = getelementptr inbounds %class.vector.15, ptr %this1, i32 0, i32 0
  %3 = load ptr, ptr %m_data3, align 8
  %arrayidx4 = getelementptr inbounds i32, ptr %3, i64 -2
  %4 = load i32, ptr %arrayidx4, align 4
  %cmp5 = icmp eq i32 %2, %4
  br i1 %cmp5, label %if.then, label %if.end

if.then:                                          ; preds = %lor.lhs.false, %entry
  call void @_ZN6vectorI8rationalLb1EjE13expand_vectorEv(ptr noundef nonnull align 8 dereferenceable(8) %this1)
  br label %if.end

if.end:                                           ; preds = %if.then, %lor.lhs.false
  %m_data6 = getelementptr inbounds %class.vector.15, ptr %this1, i32 0, i32 0
  %5 = load ptr, ptr %m_data6, align 8
  %m_data7 = getelementptr inbounds %class.vector.15, ptr %this1, i32 0, i32 0
  %6 = load ptr, ptr %m_data7, align 8
  %arrayidx8 = getelementptr inbounds i32, ptr %6, i64 -1
  %7 = load i32, ptr %arrayidx8, align 4
  %idx.ext = zext i32 %7 to i64
  %add.ptr = getelementptr inbounds %class.rational, ptr %5, i64 %idx.ext
  %8 = load ptr, ptr %elem.addr, align 8
  call void @_ZN8rationalC2EOS_(ptr noundef nonnull align 8 dereferenceable(32) %add.ptr, ptr noundef nonnull align 8 dereferenceable(32) %8) #3
  %m_data9 = getelementptr inbounds %class.vector.15, ptr %this1, i32 0, i32 0
  %9 = load ptr, ptr %m_data9, align 8
  %arrayidx10 = getelementptr inbounds i32, ptr %9, i64 -1
  %10 = load i32, ptr %arrayidx10, align 4
  %inc = add i32 %10, 1
  store i32 %inc, ptr %arrayidx10, align 4
  ret ptr %this1
}

; Function Attrs: mustprogress uwtable
define linkonce_odr hidden void @_ZNK15bit_blaster_tplI15bit_blaster_cfgE5powerEj(ptr noalias sret(%class.rational) align 8 %agg.result, ptr noundef nonnull align 8 dereferenceable(32) %this, i32 noundef %n) #5 comdat align 2 {
entry:
  %result.ptr = alloca ptr, align 8
  %this.addr = alloca ptr, align 8
  %n.addr = alloca i32, align 4
  store ptr %agg.result, ptr %result.ptr, align 8
  store ptr %this, ptr %this.addr, align 8
  store i32 %n, ptr %n.addr, align 4
  %this1 = load ptr, ptr %this.addr, align 8
  %0 = load i32, ptr %n.addr, align 4
  call void @_ZNK15bit_blaster_cfg5powerEj(ptr sret(%class.rational) align 8 %agg.result, ptr noundef nonnull align 8 dereferenceable(24) %this1, i32 noundef %0)
  ret void
}

; Function Attrs: mustprogress nounwind uwtable
define linkonce_odr hidden noundef i32 @_ZNK6vectorI8rationalLb1EjE4sizeEv(ptr noundef nonnull align 8 dereferenceable(8) %this) #4 comdat align 2 {
entry:
  %retval = alloca i32, align 4
  %this.addr = alloca ptr, align 8
  store ptr %this, ptr %this.addr, align 8
  %this1 = load ptr, ptr %this.addr, align 8
  %m_data = getelementptr inbounds %class.vector.15, ptr %this1, i32 0, i32 0
  %0 = load ptr, ptr %m_data, align 8
  %cmp = icmp eq ptr %0, null
  br i1 %cmp, label %if.then, label %if.end

if.then:                                          ; preds = %entry
  store i32 0, ptr %retval, align 4
  br label %return

if.end:                                           ; preds = %entry
  %m_data2 = getelementptr inbounds %class.vector.15, ptr %this1, i32 0, i32 0
  %1 = load ptr, ptr %m_data2, align 8
  %arrayidx = getelementptr inbounds i32, ptr %1, i64 -1
  %2 = load i32, ptr %arrayidx, align 4
  store i32 %2, ptr %retval, align 4
  br label %return

return:                                           ; preds = %if.end, %if.then
  %3 = load i32, ptr %retval, align 4
  ret i32 %3
}

; Function Attrs: mustprogress uwtable
define hidden noundef nonnull align 8 dereferenceable(32) ptr @_ZNK2bv6solver6power2Ej(ptr noundef nonnull align 8 dereferenceable(640) %this, i32 noundef %i) #5 align 2 personality ptr @__gxx_personality_v0 {
entry:
  %this.addr = alloca ptr, align 8
  %i.addr = alloca i32, align 4
  %ref.tmp = alloca %class.rational, align 8
  %exn.slot = alloca ptr, align 8
  %ehselector.slot = alloca i32, align 4
  store ptr %this, ptr %this.addr, align 8
  store i32 %i, ptr %i.addr, align 4
  %this1 = load ptr, ptr %this.addr, align 8
  br label %while.cond

while.cond:                                       ; preds = %invoke.cont, %entry
  %m_power2 = getelementptr inbounds %"class.bv::solver", ptr %this1, i32 0, i32 15
  %call = call noundef i32 @_ZNK6vectorI8rationalLb1EjE4sizeEv(ptr noundef nonnull align 8 dereferenceable(8) %m_power2)
  %0 = load i32, ptr %i.addr, align 4
  %cmp = icmp ule i32 %call, %0
  br i1 %cmp, label %while.body, label %while.end

while.body:                                       ; preds = %while.cond
  %m_power22 = getelementptr inbounds %"class.bv::solver", ptr %this1, i32 0, i32 15
  %m_bb = getelementptr inbounds %"class.bv::solver", ptr %this1, i32 0, i32 8
  %m_power23 = getelementptr inbounds %"class.bv::solver", ptr %this1, i32 0, i32 15
  %call4 = call noundef i32 @_ZNK6vectorI8rationalLb1EjE4sizeEv(ptr noundef nonnull align 8 dereferenceable(8) %m_power23)
  call void @_ZNK15bit_blaster_tplI15bit_blaster_cfgE5powerEj(ptr sret(%class.rational) align 8 %ref.tmp, ptr noundef nonnull align 8 dereferenceable(32) %m_bb, i32 noundef %call4)
  %call5 = invoke noundef nonnull align 8 dereferenceable(8) ptr @_ZN6vectorI8rationalLb1EjE9push_backEOS0_(ptr noundef nonnull align 8 dereferenceable(8) %m_power22, ptr noundef nonnull align 8 dereferenceable(32) %ref.tmp)
          to label %invoke.cont unwind label %lpad

invoke.cont:                                      ; preds = %while.body
  call void @_ZN8rationalD2Ev(ptr noundef nonnull align 8 dereferenceable(32) %ref.tmp) #3
  br label %while.cond, !llvm.loop !6

lpad:                                             ; preds = %while.body
  %1 = landingpad { ptr, i32 }
          cleanup
  %2 = extractvalue { ptr, i32 } %1, 0
  store ptr %2, ptr %exn.slot, align 8
  %3 = extractvalue { ptr, i32 } %1, 1
  store i32 %3, ptr %ehselector.slot, align 4
  call void @_ZN8rationalD2Ev(ptr noundef nonnull align 8 dereferenceable(32) %ref.tmp) #3
  br label %eh.resume

while.end:                                        ; preds = %while.cond
  %m_power26 = getelementptr inbounds %"class.bv::solver", ptr %this1, i32 0, i32 15
  %4 = load i32, ptr %i.addr, align 4
  %call7 = call noundef nonnull align 8 dereferenceable(32) ptr @_ZN6vectorI8rationalLb1EjEixEj(ptr noundef nonnull align 8 dereferenceable(8) %m_power26, i32 noundef %4)
  ret ptr %call7

eh.resume:                                        ; preds = %lpad
  %exn = load ptr, ptr %exn.slot, align 8
  %sel = load i32, ptr %ehselector.slot, align 4
  %lpad.val = insertvalue { ptr, i32 } poison, ptr %exn, 0
  %lpad.val8 = insertvalue { ptr, i32 } %lpad.val, i32 %sel, 1
  resume { ptr, i32 } %lpad.val8
}