; Function Attrs: mustprogress uwtable
define hidden noundef nonnull align 8 dereferenceable(32) ptr @_ZNK2bv6solver6power2Ej(ptr noundef nonnull align 8 dereferenceable(640) %this, i32 noundef %i) local_unnamed_addr #3 align 2 personality ptr @__gxx_personality_v0 {
entry:
  %ref.tmp = alloca %class.rational, align 8
  %m_power2 = getelementptr inbounds i8, ptr %this, i64 520
  %m_kind3.i.i.i.i = getelementptr inbounds i8, ptr %ref.tmp, i64 4
  %m_ptr15.i.i.i.i = getelementptr inbounds i8, ptr %ref.tmp, i64 8
  %m_den3.i.i.i = getelementptr inbounds i8, ptr %ref.tmp, i64 16
  %m_kind3.i3.i.i.i = getelementptr inbounds i8, ptr %ref.tmp, i64 20
  %m_ptr15.i14.i.i.i = getelementptr inbounds i8, ptr %ref.tmp, i64 24
  br label %while.cond

while.cond:                                       ; preds = %.noexc.i, %entry
  %0 = load ptr, ptr %m_power2, align 8
  %cmp.i = icmp eq ptr %0, null
  br i1 %cmp.i, label %_ZNK6vectorI8rationalLb1EjE4sizeEv.exit6, label %_ZNK6vectorI8rationalLb1EjE4sizeEv.exit

_ZNK6vectorI8rationalLb1EjE4sizeEv.exit:          ; preds = %while.cond
  %arrayidx.i = getelementptr inbounds i8, ptr %0, i64 -4
  %1 = load i32, ptr %arrayidx.i, align 4
  %cmp.not = icmp ugt i32 %1, %i
  br i1 %cmp.not, label %while.end, label %_ZNK6vectorI8rationalLb1EjE4sizeEv.exit6

_ZNK6vectorI8rationalLb1EjE4sizeEv.exit6:         ; preds = %_ZNK6vectorI8rationalLb1EjE4sizeEv.exit, %while.cond
  %retval.0.i5 = phi i32 [ 0, %while.cond ], [ %1, %_ZNK6vectorI8rationalLb1EjE4sizeEv.exit ]
  call void @_ZN8rational12power_of_twoEj(ptr nonnull sret(%class.rational) align 8 %ref.tmp, i32 noundef %retval.0.i5)
  %2 = load ptr, ptr %m_power2, align 8
  %cmp.i7 = icmp eq ptr %2, null
  br i1 %cmp.i7, label %if.then.i, label %lor.lhs.false.i

lor.lhs.false.i:                                  ; preds = %_ZNK6vectorI8rationalLb1EjE4sizeEv.exit6
  %arrayidx.i8 = getelementptr inbounds i8, ptr %2, i64 -4
  %3 = load i32, ptr %arrayidx.i8, align 4
  %arrayidx4.i = getelementptr inbounds i8, ptr %2, i64 -8
  %4 = load i32, ptr %arrayidx4.i, align 4
  %cmp5.i = icmp eq i32 %3, %4
  br i1 %cmp5.i, label %if.then.i, label %invoke.cont

if.then.i:                                        ; preds = %lor.lhs.false.i, %_ZNK6vectorI8rationalLb1EjE4sizeEv.exit6
  invoke void @_ZN6vectorI8rationalLb1EjE13expand_vectorEv(ptr noundef nonnull align 8 dereferenceable(8) %m_power2)
          to label %.noexc unwind label %lpad

.noexc:                                           ; preds = %if.then.i
  %.pre.i = load ptr, ptr %m_power2, align 8
  %arrayidx8.phi.trans.insert.i = getelementptr inbounds i8, ptr %.pre.i, i64 -4
  %.pre1.i = load i32, ptr %arrayidx8.phi.trans.insert.i, align 4
  br label %invoke.cont

invoke.cont:                                      ; preds = %.noexc, %lor.lhs.false.i
  %5 = phi i32 [ %.pre1.i, %.noexc ], [ %3, %lor.lhs.false.i ]
  %6 = phi ptr [ %.pre.i, %.noexc ], [ %2, %lor.lhs.false.i ]
  %idx.ext.i = zext i32 %5 to i64
  %add.ptr.i = getelementptr inbounds %class.rational, ptr %6, i64 %idx.ext.i
  %7 = load i32, ptr %ref.tmp, align 8
  store i32 %7, ptr %add.ptr.i, align 8
  %m_kind.i.i.i.i = getelementptr inbounds i8, ptr %add.ptr.i, i64 4
  %bf.load.i.i.i.i = load i8, ptr %m_kind3.i.i.i.i, align 4
  %bf.clear.i.i.i.i = and i8 %bf.load.i.i.i.i, 1
  %bf.load4.i.i.i.i = load i8, ptr %m_kind.i.i.i.i, align 4
  %bf.clear5.i.i.i.i = and i8 %bf.load4.i.i.i.i, -2
  %bf.set.i.i.i.i = or disjoint i8 %bf.clear5.i.i.i.i, %bf.clear.i.i.i.i
  store i8 %bf.set.i.i.i.i, ptr %m_kind.i.i.i.i, align 4
  %bf.load7.i.i.i.i = load i8, ptr %m_kind3.i.i.i.i, align 4
  %bf.clear8.i.i.i.i = and i8 %bf.load7.i.i.i.i, 2
  %bf.clear12.i.i.i.i = and i8 %bf.set.i.i.i.i, -3
  %bf.set13.i.i.i.i = or disjoint i8 %bf.clear12.i.i.i.i, %bf.clear8.i.i.i.i
  store i8 %bf.set13.i.i.i.i, ptr %m_kind.i.i.i.i, align 4
  %m_ptr.i.i.i.i = getelementptr inbounds i8, ptr %add.ptr.i, i64 8
  store ptr null, ptr %m_ptr.i.i.i.i, align 8
  %8 = load ptr, ptr %m_ptr15.i.i.i.i, align 8
  store ptr %8, ptr %m_ptr.i.i.i.i, align 8
  store ptr null, ptr %m_ptr15.i.i.i.i, align 8
  %m_den.i.i.i = getelementptr inbounds i8, ptr %add.ptr.i, i64 16
  %9 = load i32, ptr %m_den3.i.i.i, align 8
  store i32 %9, ptr %m_den.i.i.i, align 8
  %m_kind.i2.i.i.i = getelementptr inbounds i8, ptr %add.ptr.i, i64 20
  %bf.load.i4.i.i.i = load i8, ptr %m_kind3.i3.i.i.i, align 4
  %bf.clear.i5.i.i.i = and i8 %bf.load.i4.i.i.i, 1
  %bf.load4.i6.i.i.i = load i8, ptr %m_kind.i2.i.i.i, align 4
  %bf.clear5.i7.i.i.i = and i8 %bf.load4.i6.i.i.i, -2
  %bf.set.i8.i.i.i = or disjoint i8 %bf.clear5.i7.i.i.i, %bf.clear.i5.i.i.i
  store i8 %bf.set.i8.i.i.i, ptr %m_kind.i2.i.i.i, align 4
  %bf.load7.i9.i.i.i = load i8, ptr %m_kind3.i3.i.i.i, align 4
  %bf.clear8.i10.i.i.i = and i8 %bf.load7.i9.i.i.i, 2
  %bf.clear12.i11.i.i.i = and i8 %bf.set.i8.i.i.i, -3
  %bf.set13.i12.i.i.i = or disjoint i8 %bf.clear12.i11.i.i.i, %bf.clear8.i10.i.i.i
  store i8 %bf.set13.i12.i.i.i, ptr %m_kind.i2.i.i.i, align 4
  %m_ptr.i13.i.i.i = getelementptr inbounds i8, ptr %add.ptr.i, i64 24
  store ptr null, ptr %m_ptr.i13.i.i.i, align 8
  %10 = load ptr, ptr %m_ptr15.i14.i.i.i, align 8
  store ptr %10, ptr %m_ptr.i13.i.i.i, align 8
  store ptr null, ptr %m_ptr15.i14.i.i.i, align 8
  %11 = load ptr, ptr %m_power2, align 8
  %arrayidx10.i = getelementptr inbounds i8, ptr %11, i64 -4
  %12 = load i32, ptr %arrayidx10.i, align 4
  %inc.i = add i32 %12, 1
  store i32 %inc.i, ptr %arrayidx10.i, align 4
  %13 = load ptr, ptr @_ZN8rational13g_mpq_managerE, align 8
  invoke void @_ZN11mpz_managerILb1EE3delEPS0_R3mpz(ptr noundef %13, ptr noundef nonnull align 8 dereferenceable(16) %ref.tmp)
          to label %.noexc.i unwind label %terminate.lpad.i

.noexc.i:                                         ; preds = %invoke.cont
  invoke void @_ZN11mpz_managerILb1EE3delEPS0_R3mpz(ptr noundef %13, ptr noundef nonnull align 8 dereferenceable(16) %m_den3.i.i.i)
          to label %while.cond unwind label %terminate.lpad.i, !llvm.loop !11

terminate.lpad.i:                                 ; preds = %.noexc.i, %invoke.cont
  %14 = landingpad { ptr, i32 }
          catch ptr null
  %15 = extractvalue { ptr, i32 } %14, 0
  call void @__clang_call_terminate(ptr %15) #23
  unreachable

lpad:                                             ; preds = %if.then.i
  %16 = landingpad { ptr, i32 }
          cleanup
  call void @_ZN8rationalD2Ev(ptr noundef nonnull align 8 dereferenceable(32) %ref.tmp) #22
  resume { ptr, i32 } %16

while.end:                                        ; preds = %_ZNK6vectorI8rationalLb1EjE4sizeEv.exit
  %idxprom.i = zext i32 %i to i64
  %arrayidx.i10 = getelementptr inbounds %class.rational, ptr %0, i64 %idxprom.i
  ret ptr %arrayidx.i10
}